; Function Attrs: nounwind uwtable
define range(i32 -1, -2147483648) i32 @H5Iiterate(i32 noundef %0, ptr noundef %1, ptr noundef %2) local_unnamed_addr #0 {
  %4 = alloca %struct.H5I_iterate_pub_ud_t, align 8
  %5 = load i8, ptr @H5_libinit_g, align 1
  %6 = trunc i8 %5 to i1
  %7 = load i8, ptr @H5_libterm_g, align 1
  %8 = trunc i8 %7 to i1
  %9 = select i1 %6, i1 true, i1 %8
  br i1 %9, label %17, label %10

10:                                               ; preds = %3
  %11 = tail call i32 @H5_init_library() #3
  %12 = icmp slt i32 %11, 0
  br i1 %12, label %13, label %17

13:                                               ; preds = %10
  %14 = load i64, ptr @H5E_FUNC_g, align 8
  %15 = load i64, ptr @H5E_CANTINIT_g, align 8
  %16 = tail call i32 (ptr, ptr, i32, i64, i64, ptr, ...) @H5E_printf_stack(ptr noundef nonnull @.str, ptr noundef nonnull @__func__.H5Iiterate, i32 noundef 801, i64 noundef %14, i64 noundef %15, ptr noundef nonnull @.str.1) #3
  br label %.thread19

17:                                               ; preds = %10, %3
  %18 = tail call i32 @H5CX_push() #3
  %19 = icmp slt i32 %18, 0
  br i1 %19, label %20, label %24

20:                                               ; preds = %17
  %21 = load i64, ptr @H5E_FUNC_g, align 8
  %22 = load i64, ptr @H5E_CANTSET_g, align 8
  %23 = tail call i32 (ptr, ptr, i32, i64, i64, ptr, ...) @H5E_printf_stack(ptr noundef nonnull @.str, ptr noundef nonnull @__func__.H5Iiterate, i32 noundef 801, i64 noundef %21, i64 noundef %22, ptr noundef nonnull @.str.2) #3
  br label %.thread19

24:                                               ; preds = %17
  %25 = tail call i32 @H5E_clear_stack() #3
  store ptr %1, ptr %4, align 8
  %26 = getelementptr inbounds i8, ptr %4, i64 8
  store ptr %2, ptr %26, align 8
  %27 = call i32 @H5I_iterate(i32 noundef %0, ptr noundef nonnull @H5I__iterate_pub_cb, ptr noundef nonnull %4, i1 noundef zeroext true) #3
  %28 = icmp slt i32 %27, 0
  br i1 %28, label %.thread24, label %33

.thread24:                                        ; preds = %24
  %29 = load i64, ptr @H5E_ID_g, align 8
  %30 = load i64, ptr @H5E_BADITER_g, align 8
  %31 = call i32 (ptr, ptr, i32, i64, i64, ptr, ...) @H5E_printf_stack(ptr noundef nonnull @.str, ptr noundef nonnull @__func__.H5Iiterate, i32 noundef 811, i64 noundef %29, i64 noundef %30, ptr noundef nonnull @.str.20) #3
  %32 = call i32 @H5CX_pop(i1 noundef zeroext true) #3
  br label %.thread19

33:                                               ; preds = %24
  %34 = call i32 @H5CX_pop(i1 noundef zeroext true) #3
  br label %36

.thread19:                                        ; preds = %20, %13, %.thread24
  %35 = call i32 @H5E_dump_api_stack() #3
  br label %36

36:                                               ; preds = %33, %.thread19
  %.091422 = phi i32 [ -1, %.thread19 ], [ %27, %33 ]
  ret i32 %.091422
}